target datalayout = "e-m:e-p270:32:32-p271:32:32-p272:64:64-i64:64-i128:128-f80:128-n8:16:32:64-S128"
target triple = "x86_64-unknown-linux-gnu"

%"class.grpc_core::XdsApi" = type { ptr, ptr, ptr, ptr, %"class.std::__cxx11::basic_string", %"class.std::__cxx11::basic_string" }
%"class.std::__cxx11::basic_string" = type { %"struct.std::__cxx11::basic_string<char>::_Alloc_hider", i64, %union.anon }
%"struct.std::__cxx11::basic_string<char>::_Alloc_hider" = type { ptr }
%union.anon = type { i64, [8 x i8] }

; Function Attrs: mustprogress nounwind uwtable
define void @_ZN9grpc_core6XdsApiC2EPNS_9XdsClientEPNS_9TraceFlagEPKNS_12XdsBootstrap4NodeEPN3upb7DefPoolENSt7__cxx1112basic_stringIcSt11char_traitsIcESaIcEEESH_(ptr noundef nonnull align 8 dereferenceable(96) %this, ptr noundef %client, ptr noundef %tracer, ptr noundef %node, ptr noundef %def_pool, ptr noundef %user_agent_name, ptr noundef %user_agent_version) unnamed_addr #4 align 2 {
entry:
  %this.addr = alloca ptr, align 8
  %client.addr = alloca ptr, align 8
  %tracer.addr = alloca ptr, align 8
  %node.addr = alloca ptr, align 8
  %def_pool.addr = alloca ptr, align 8
  %user_agent_name.indirect_addr = alloca ptr, align 8
  %user_agent_version.indirect_addr = alloca ptr, align 8
  store ptr %this, ptr %this.addr, align 8
  store ptr %client, ptr %client.addr, align 8
  store ptr %tracer, ptr %tracer.addr, align 8
  store ptr %node, ptr %node.addr, align 8
  store ptr %def_pool, ptr %def_pool.addr, align 8
  store ptr %user_agent_name, ptr %user_agent_name.indirect_addr, align 8
  store ptr %user_agent_version, ptr %user_agent_version.indirect_addr, align 8
  %this1 = load ptr, ptr %this.addr, align 8
  %client_ = getelementptr inbounds %"class.grpc_core::XdsApi", ptr %this1, i32 0, i32 0
  %0 = load ptr, ptr %client.addr, align 8
  store ptr %0, ptr %client_, align 8
  %tracer_ = getelementptr inbounds %"class.grpc_core::XdsApi", ptr %this1, i32 0, i32 1
  %1 = load ptr, ptr %tracer.addr, align 8
  store ptr %1, ptr %tracer_, align 8
  %node_ = getelementptr inbounds %"class.grpc_core::XdsApi", ptr %this1, i32 0, i32 2
  %2 = load ptr, ptr %node.addr, align 8
  store ptr %2, ptr %node_, align 8
  %def_pool_ = getelementptr inbounds %"class.grpc_core::XdsApi", ptr %this1, i32 0, i32 3
  %3 = load ptr, ptr %def_pool.addr, align 8
  store ptr %3, ptr %def_pool_, align 8
  %user_agent_name_ = getelementptr inbounds %"class.grpc_core::XdsApi", ptr %this1, i32 0, i32 4
  call void @_ZNSt7__cxx1112basic_stringIcSt11char_traitsIcESaIcEEC1EOS4_(ptr noundef nonnull align 8 dereferenceable(32) %user_agent_name_, ptr noundef nonnull align 8 dereferenceable(32) %user_agent_name) #3
  %user_agent_version_ = getelementptr inbounds %"class.grpc_core::XdsApi", ptr %this1, i32 0, i32 5
  call void @_ZNSt7__cxx1112basic_stringIcSt11char_traitsIcESaIcEEC1EOS4_(ptr noundef nonnull align 8 dereferenceable(32) %user_agent_version_, ptr noundef nonnull align 8 dereferenceable(32) %user_agent_version) #3
  ret void
}