; Function Attrs: mustprogress nounwind uwtable
define void @_ZN9grpc_core6XdsApiC2EPNS_9XdsClientEPNS_9TraceFlagEPKNS_12XdsBootstrap4NodeEPN3upb7DefPoolENSt7__cxx1112basic_stringIcSt11char_traitsIcESaIcEEESH_(ptr noundef nonnull align 8 dereferenceable(96) %this, ptr noundef %client, ptr noundef %tracer, ptr noundef %node, ptr noundef %def_pool, ptr noundef nonnull %user_agent_name, ptr noundef %user_agent_version) unnamed_addr #3 align 2 {
entry:
  store ptr %client, ptr %this, align 8
  %tracer_ = getelementptr inbounds i8, ptr %this, i64 8
  store ptr %tracer, ptr %tracer_, align 8
  %node_ = getelementptr inbounds i8, ptr %this, i64 16
  store ptr %node, ptr %node_, align 8
  %def_pool_ = getelementptr inbounds i8, ptr %this, i64 24
  store ptr %def_pool, ptr %def_pool_, align 8
  %user_agent_name_ = getelementptr inbounds i8, ptr %this, i64 32
  tail call void @_ZNSt7__cxx1112basic_stringIcSt11char_traitsIcESaIcEEC1EOS4_(ptr noundef nonnull align 8 dereferenceable(32) %user_agent_name_, ptr noundef nonnull align 8 dereferenceable(32) %user_agent_name) #18
  %user_agent_version_ = getelementptr inbounds i8, ptr %this, i64 64
  tail call void @_ZNSt7__cxx1112basic_stringIcSt11char_traitsIcESaIcEEC1EOS4_(ptr noundef nonnull align 8 dereferenceable(32) %user_agent_version_, ptr noundef nonnull align 8 dereferenceable(32) %user_agent_version) #18
  ret void
}